target datalayout = "e-m:e-p270:32:32-p271:32:32-p272:64:64-i64:64-i128:128-f80:128-n8:16:32:64-S128"
target triple = "x86_64-pc-linux-gnu"

@.str = private unnamed_addr constant [10 x i8] c"TCP:%s:%u\00", align 1
@.str.1 = private unnamed_addr constant [15 x i8] c"TCP:%s:%u:%08x\00", align 1

; Function Attrs: null_pointer_is_valid sspstrong uwtable
define hidden ptr @lbttcp_transport_source_string(ptr noundef %0, i16 noundef zeroext %1, i32 noundef %2) #0 {
  %4 = alloca ptr, align 8
  %5 = alloca i16, align 2
  %6 = alloca i32, align 4
  %7 = alloca ptr, align 8
  store ptr %0, ptr %4, align 8
  store i16 %1, ptr %5, align 2
  store i32 %2, ptr %6, align 4
  call void @llvm.lifetime.start.p0(i64 8, ptr %7) #9
  store ptr null, ptr %7, align 8
  %8 = load i32, ptr %6, align 4
  %9 = icmp eq i32 %8, 0
  br i1 %9, label %10, label %18

10:                                               ; preds = %3
  %11 = call ptr @wmem_file_scope()
  %12 = call ptr @wmem_packet_scope()
  %13 = load ptr, ptr %4, align 8
  %14 = call ptr @address_to_str(ptr noundef %12, ptr noundef %13)
  %15 = load i16, ptr %5, align 2
  %16 = zext i16 %15 to i32
  %17 = call noalias ptr (ptr, ptr, ...) @wmem_strdup_printf(ptr noundef %11, ptr noundef @.str, ptr noundef %14, i32 noundef %16)
  store ptr %17, ptr %7, align 8
  br label %27

18:                                               ; preds = %3
  %19 = call ptr @wmem_file_scope()
  %20 = call ptr @wmem_packet_scope()
  %21 = load ptr, ptr %4, align 8
  %22 = call ptr @address_to_str(ptr noundef %20, ptr noundef %21)
  %23 = load i16, ptr %5, align 2
  %24 = zext i16 %23 to i32
  %25 = load i32, ptr %6, align 4
  %26 = call noalias ptr (ptr, ptr, ...) @wmem_strdup_printf(ptr noundef %19, ptr noundef @.str.1, ptr noundef %22, i32 noundef %24, i32 noundef %25)
  store ptr %26, ptr %7, align 8
  br label %27

27:                                               ; preds = %18, %10
  %28 = load ptr, ptr %7, align 8
  call void @llvm.lifetime.end.p0(i64 8, ptr %7) #9
  ret ptr %28
}