; Function Attrs: null_pointer_is_valid sspstrong uwtable
define hidden noalias ptr @lbttcp_transport_source_string(ptr noundef %0, i16 noundef zeroext %1, i32 noundef %2) local_unnamed_addr #0 {
  %4 = icmp eq i32 %2, 0
  %5 = tail call ptr @wmem_file_scope()
  %6 = tail call ptr @wmem_packet_scope()
  %7 = tail call ptr @address_to_str(ptr noundef %6, ptr noundef %0)
  %8 = zext i16 %1 to i32
  br i1 %4, label %9, label %11

9:                                                ; preds = %3
  %10 = tail call noalias ptr (ptr, ptr, ...) @wmem_strdup_printf(ptr noundef %5, ptr noundef nonnull @.str, ptr noundef %7, i32 noundef %8)
  br label %13

11:                                               ; preds = %3
  %12 = tail call noalias ptr (ptr, ptr, ...) @wmem_strdup_printf(ptr noundef %5, ptr noundef nonnull @.str.1, ptr noundef %7, i32 noundef %8, i32 noundef %2)
  br label %13

13:                                               ; preds = %11, %9
  %.0 = phi ptr [ %10, %9 ], [ %12, %11 ]
  ret ptr %.0
}